; ModuleID = '52/4507.c'
source_filename = "52/4507.c"
target datalayout = "e-m:e-p270:32:32-p271:32:32-p272:64:64-i64:64-f80:128-n8:16:32:64-S128"
target triple = "x86_64-pc-linux-gnu"

@.str = private unnamed_addr constant [5 x i8] c"%d%d\00", align 1
@.str.1 = private unnamed_addr constant [3 x i8] c"%d\00", align 1
@.str.2 = private unnamed_addr constant [4 x i8] c" %d\00", align 1

; Function Attrs: noinline nounwind uwtable
define dso_local i32 @main() #0 {
  %1 = alloca i32, align 4
  %2 = alloca i32, align 4
  %3 = alloca i32, align 4
  %4 = alloca i32, align 4
  %5 = alloca [100 x i32], align 16
  %6 = alloca [100 x i32], align 16
  store i32 0, i32* %1, align 4
  %7 = call i32 (i8*, ...) @__isoc99_scanf(i8* getelementptr inbounds ([5 x i8], [5 x i8]* @.str, i64 0, i64 0), i32* %2, i32* %4)
  store i32 0, i32* %3, align 4
  br label %8

8:                                                ; preds = %18, %0
  %9 = load i32, i32* %3, align 4
  %10 = load i32, i32* %2, align 4
  %11 = sub nsw i32 %10, 1
  %12 = icmp sle i32 %9, %11
  br i1 %12, label %13, label %21

13:                                               ; preds = %8
  %14 = load i32, i32* %3, align 4
  %15 = sext i32 %14 to i64
  %16 = getelementptr inbounds [100 x i32], [100 x i32]* %5, i64 0, i64 %15
  %17 = call i32 (i8*, ...) @__isoc99_scanf(i8* getelementptr inbounds ([3 x i8], [3 x i8]* @.str.1, i64 0, i64 0), i32* %16)
  br label %18

18:                                               ; preds = %13
  %19 = load i32, i32* %3, align 4
  %20 = add nsw i32 %19, 1
  store i32 %20, i32* %3, align 4
  br label %8

21:                                               ; preds = %8
  store i32 0, i32* %3, align 4
  br label %22

22:                                               ; preds = %57, %21
  %23 = load i32, i32* %3, align 4
  %24 = load i32, i32* %2, align 4
  %25 = sub nsw i32 %24, 1
  %26 = icmp sle i32 %23, %25
  br i1 %26, label %27, label %60

27:                                               ; preds = %22
  %28 = load i32, i32* %3, align 4
  %29 = load i32, i32* %2, align 4
  %30 = sub nsw i32 %29, 1
  %31 = load i32, i32* %4, align 4
  %32 = sub nsw i32 %30, %31
  %33 = icmp sle i32 %28, %32
  br i1 %33, label %34, label %44

34:                                               ; preds = %27
  %35 = load i32, i32* %3, align 4
  %36 = sext i32 %35 to i64
  %37 = getelementptr inbounds [100 x i32], [100 x i32]* %5, i64 0, i64 %36
  %38 = load i32, i32* %37, align 4
  %39 = load i32, i32* %3, align 4
  %40 = load i32, i32* %4, align 4
  %41 = add nsw i32 %39, %40
  %42 = sext i32 %41 to i64
  %43 = getelementptr inbounds [100 x i32], [100 x i32]* %6, i64 0, i64 %42
  store i32 %38, i32* %43, align 4
  br label %56

44:                                               ; preds = %27
  %45 = load i32, i32* %3, align 4
  %46 = sext i32 %45 to i64
  %47 = getelementptr inbounds [100 x i32], [100 x i32]* %5, i64 0, i64 %46
  %48 = load i32, i32* %47, align 4
  %49 = load i32, i32* %3, align 4
  %50 = load i32, i32* %4, align 4
  %51 = add nsw i32 %49, %50
  %52 = load i32, i32* %2, align 4
  %53 = sub nsw i32 %51, %52
  %54 = sext i32 %53 to i64
  %55 = getelementptr inbounds [100 x i32], [100 x i32]* %6, i64 0, i64 %54
  store i32 %48, i32* %55, align 4
  br label %56

56:                                               ; preds = %44, %34
  br label %57

57:                                               ; preds = %56
  %58 = load i32, i32* %3, align 4
  %59 = add nsw i32 %58, 1
  store i32 %59, i32* %3, align 4
  br label %22

60:                                               ; preds = %22
  store i32 0, i32* %3, align 4
  br label %61

61:                                               ; preds = %80, %60
  %62 = load i32, i32* %3, align 4
  %63 = load i32, i32* %2, align 4
  %64 = sub nsw i32 %63, 1
  %65 = icmp sle i32 %62, %64
  br i1 %65, label %66, label %83

66:                                               ; preds = %61
  %67 = load i32, i32* %3, align 4
  %68 = icmp eq i32 %67, 0
  br i1 %68, label %69, label %73

69:                                               ; preds = %66
  %70 = getelementptr inbounds [100 x i32], [100 x i32]* %6, i64 0, i64 0
  %71 = load i32, i32* %70, align 16
  %72 = call i32 (i8*, ...) @printf(i8* getelementptr inbounds ([3 x i8], [3 x i8]* @.str.1, i64 0, i64 0), i32 %71)
  br label %79

73:                                               ; preds = %66
  %74 = load i32, i32* %3, align 4
  %75 = sext i32 %74 to i64
  %76 = getelementptr inbounds [100 x i32], [100 x i32]* %6, i64 0, i64 %75
  %77 = load i32, i32* %76, align 4
  %78 = call i32 (i8*, ...) @printf(i8* getelementptr inbounds ([4 x i8], [4 x i8]* @.str.2, i64 0, i64 0), i32 %77)
  br label %79

79:                                               ; preds = %73, %69
  br label %80

80:                                               ; preds = %79
  %81 = load i32, i32* %3, align 4
  %82 = add nsw i32 %81, 1
  store i32 %82, i32* %3, align 4
  br label %61

83:                                               ; preds = %61
  %84 = load i32, i32* %1, align 4
  ret i32 %84
}

declare dso_local i32 @__isoc99_scanf(i8*, ...) #1

declare dso_local i32 @printf(i8*, ...) #1


!llvm.module.flags = !{!0}
!llvm.ident = !{!1}

!0 = !{i32 1, !"wchar_size", i32 4}
!1 = !{!"clang version 10.0.0-4ubuntu1 "}
